Certificate:
    Data:
        Version: 3 (0x2)
        Serial Number:
            70:0e:2f:9e:b6:0b:08:ac:9b:ad:a9:9e:88:9a:83:88:63:6f:82:b3
        Signature Algorithm: sha256WithRSAEncryption
        Issuer: C=ES, ST=Barcelona, O=Network Security Org, OU=Certification, CN=NS Root CA
        Validity
            Not Before: Oct  4 13:58:59 2021 GMT
            Not After : Oct  4 13:58:59 2022 GMT
        Subject: C=ES, ST=Barcelona, O=Network Security Org, OU=Test Servers, CN=localhost
        Subject Public Key Info:
            Public Key Algorithm: rsaEncryption
                RSA Public-Key: (2048 bit)
                Modulus:
                    00:be:2e:87:2a:cf:8f:ba:dc:37:b1:56:dd:0d:24:
                    ee:70:b0:d0:a0:d3:be:52:a5:86:7e:1e:77:d7:98:
                    5d:0f:23:42:6a:ec:48:d4:15:56:ae:e0:2c:5d:b7:
                    ec:f7:61:29:29:6e:40:55:95:da:fa:0e:83:57:3f:
                    31:4f:b3:3f:1e:30:76:b8:75:5a:23:67:74:6c:6a:
                    f6:6a:bc:1a:aa:f3:d5:1a:35:48:d2:16:f2:19:8e:
                    07:7f:bd:0c:02:54:98:eb:94:aa:dc:d2:32:98:b6:
                    52:80:cd:6b:5c:83:02:96:be:1c:3a:72:aa:0c:0b:
                    ff:0e:55:64:4e:28:42:3d:90:d9:6c:d1:a9:b3:61:
                    9f:d9:ad:56:d4:c4:61:f9:17:66:d0:89:79:3d:82:
                    19:54:db:c9:9d:ee:c3:e5:5d:d4:e9:69:a1:c1:68:
                    e7:ea:1a:e9:32:cb:80:1b:be:be:c0:bb:2b:48:26:
                    eb:9c:46:46:ce:b9:93:e7:7c:d9:12:4a:c5:15:1d:
                    f8:c3:a6:6a:ba:bc:a4:f9:55:63:a9:48:05:2d:28:
                    64:0b:13:12:54:80:2a:ca:c9:2d:32:5b:bf:bd:2e:
                    7a:cf:be:df:34:bf:d5:aa:15:e9:14:9a:04:fb:48:
                    32:7e:ba:16:01:24:5f:5c:e0:d1:35:03:e9:50:0b:
                    a6:eb
                Exponent: 65537 (0x10001)
        X509v3 extensions:
            X509v3 Basic Constraints: 
                CA:FALSE
            X509v3 Subject Key Identifier: 
                5C:BC:5E:70:E2:E3:E5:6D:ED:49:E7:AD:EB:22:B9:4B:A8:85:A3:36
            X509v3 Authority Key Identifier: 
                keyid:B3:B8:9C:44:3D:6A:CA:96:01:0A:80:FC:61:BE:9C:72:AD:FF:B5:57

            Authority Information Access: 
                OCSP - URI:http://10.0.2.4

            X509v3 Key Usage: critical
                Digital Signature, Non Repudiation, Key Encipherment, Key Agreement
            X509v3 Extended Key Usage: critical
                TLS Web Server Authentication
    Signature Algorithm: sha256WithRSAEncryption
         78:81:d6:ae:a2:26:76:2e:d6:75:3a:35:33:ef:dc:6b:b6:ec:
         f3:a9:ac:4f:07:ec:84:3e:c3:52:b7:fc:47:14:3a:75:4c:60:
         ff:17:b2:ca:6e:f6:08:bb:62:ef:9c:f3:af:fa:51:f9:b1:fa:
         a5:0e:f4:cb:07:9f:a5:ff:71:e1:63:3a:d3:d8:85:77:18:64:
         85:77:a3:ec:d4:fc:46:88:72:77:90:f5:0c:f9:f4:77:5e:14:
         08:96:7b:e3:91:25:11:26:a4:b2:e5:aa:c7:a9:26:29:fd:e6:
         c6:d6:c1:24:a7:0a:68:db:a4:0d:ee:96:e1:ab:e5:78:a6:8a:
         45:7a:c4:a3:1a:05:11:7f:5f:0d:ab:2b:96:b8:75:d8:3b:9b:
         69:9e:e6:f0:31:8c:6b:eb:78:0d:0d:43:82:bf:0e:93:f7:fe:
         c2:01:6d:d3:48:ee:55:35:f2:92:33:51:4a:cb:b8:b5:76:79:
         46:d2:dd:e5:3f:78:6d:6a:8f:45:88:0a:a6:4f:f7:a4:90:f7:
         49:a8:7a:40:f8:c5:4a:6a:fe:5c:c6:20:21:5b:ab:25:96:5b:
         7d:b1:8b:d3:6f:99:b2:5b:25:2d:0b:53:33:ac:5d:a6:f9:58:
         83:8e:b3:e3:dc:97:8a:de:92:89:c5:9d:16:f0:23:7b:ce:0b:
         c5:ac:a0:2a:7c:28:c1:57:f9:29:f7:6b:69:7f:8e:e4:d2:79:
         fa:a3:1f:8d:41:2d:15:9e:fb:59:f9:57:33:13:64:b8:de:8d:
         b9:48:2d:7d:08:98:7f:d2:06:da:cc:9b:c5:f7:39:23:ab:15:
         cf:62:fa:9b:7c:53:7b:7f:68:25:51:cd:66:2f:c6:27:07:f5:
         3f:cf:36:26:86:8b:a8:9d:b9:f5:86:fa:2a:3e:5e:ef:65:7e:
         52:24:97:a5:ad:06:83:f6:7e:42:65:85:5f:60:50:4c:1d:f9:
         a5:6d:e6:22:31:a5:1f:24:0a:91:a4:ba:72:b6:5d:ab:7a:4b:
         4d:1d:5e:f9:5d:0a:cc:08:6d:76:12:50:e9:eb:14:56:ea:40:
         e5:70:86:46:71:9d:f2:0a:bd:14:08:36:02:43:ad:25:49:e9:
         a0:1b:6e:5a:1e:32:e8:72:1b:b5:99:ce:ce:3f:76:45:06:e0:
         ff:72:21:5d:38:ce:5f:da:ca:40:8d:9f:e2:74:fd:a2:1f:0f:
         04:b3:77:31:81:2c:c5:c6:37:08:7b:c0:8e:64:37:ca:4c:b9:
         1c:9a:90:20:92:f4:a7:83:57:51:54:e5:cf:2b:98:c2:58:df:
         4d:a5:0d:d1:f3:d7:f3:11:8c:ae:8b:8d:03:04:10:27:a2:52:
         de:fb:cf:2c:a0:1a:22:65
-----BEGIN CERTIFICATE-----
MIIFCjCCAvKgAwIBAgIUcA4vnrYLCKybrameiJqDiGNvgrMwDQYJKoZIhvcNAQEL
BQAwbTELMAkGA1UEBhMCRVMxEjAQBgNVBAgMCUJhcmNlbG9uYTEdMBsGA1UECgwU
TmV0d29yayBTZWN1cml0eSBPcmcxFjAUBgNVBAsMDUNlcnRpZmljYXRpb24xEzAR
BgNVBAMMCk5TIFJvb3QgQ0EwHhcNMjExMDA0MTM1ODU5WhcNMjIxMDA0MTM1ODU5
WjBrMQswCQYDVQQGEwJFUzESMBAGA1UECAwJQmFyY2Vsb25hMR0wGwYDVQQKDBRO
ZXR3b3JrIFNlY3VyaXR5IE9yZzEVMBMGA1UECwwMVGVzdCBTZXJ2ZXJzMRIwEAYD
VQQDDAlsb2NhbGhvc3QwggEiMA0GCSqGSIb3DQEBAQUAA4IBDwAwggEKAoIBAQC+
Locqz4+63DexVt0NJO5wsNCg075SpYZ+HnfXmF0PI0Jq7EjUFVau4Cxdt+z3YSkp
bkBVldr6DoNXPzFPsz8eMHa4dVojZ3RsavZqvBqq89UaNUjSFvIZjgd/vQwCVJjr
lKrc0jKYtlKAzWtcgwKWvhw6cqoMC/8OVWROKEI9kNls0amzYZ/ZrVbUxGH5F2bQ
iXk9ghlU28md7sPlXdTpaaHBaOfqGukyy4Abvr7AuytIJuucRkbOuZPnfNkSSsUV
HfjDpmq6vKT5VWOpSAUtKGQLExJUgCrKyS0yW7+9LnrPvt80v9WqFekUmgT7SDJ+
uhYBJF9c4NE1A+lQC6brAgMBAAGjgaMwgaAwCQYDVR0TBAIwADAdBgNVHQ4EFgQU
XLxecOLj5W3tSeet6yK5S6iFozYwHwYDVR0jBBgwFoAUs7icRD1qypYBCoD8Yb6c
cq3/tVcwKwYIKwYBBQUHAQEEHzAdMBsGCCsGAQUFBzABhg9odHRwOi8vMTAuMC4y
LjQwDgYDVR0PAQH/BAQDAgPoMBYGA1UdJQEB/wQMMAoGCCsGAQUFBwMBMA0GCSqG
SIb3DQEBCwUAA4ICAQB4gdauoiZ2LtZ1OjUz79xrtuzzqaxPB+yEPsNSt/xHFDp1
TGD/F7LKbvYIu2LvnPOv+lH5sfqlDvTLB5+l/3HhYzrT2IV3GGSFd6Ps1PxGiHJ3
kPUM+fR3XhQIlnvjkSURJqSy5arHqSYp/ebG1sEkpwpo26QN7pbhq+V4popFesSj
GgURf18NqyuWuHXYO5tpnubwMYxr63gNDUOCvw6T9/7CAW3TSO5VNfKSM1FKy7i1
dnlG0t3lP3htao9FiAqmT/ekkPdJqHpA+MVKav5cxiAhW6slllt9sYvTb5myWyUt
C1MzrF2m+ViDjrPj3JeK3pKJxZ0W8CN7zgvFrKAqfCjBV/kp92tpf47k0nn6ox+N
QS0VnvtZ+VczE2S43o25SC19CJh/0gbazJvF9zkjqxXPYvqbfFN7f2glUc1mL8Yn
B/U/zzYmhouonbn1hvoqPl7vZX5SJJelrQaD9n5CZYVfYFBMHfmlbeYiMaUfJAqR
pLpytl2rektNHV75XQrMCG12ElDp6xRW6kDlcIZGcZ3yCr0UCDYCQ60lSemgG25a
HjLochu1mc7OP3ZFBuD/ciFdOM5f2spAjZ/idP2iHw8Es3cxgSzFxjcIe8COZDfK
TLkcmpAgkvSng1dRVOXPK5jCWN9NpQ3R89fzEYyui40DBBAnolLe+88soBoiZQ==
-----END CERTIFICATE-----
