Certificate:
    Data:
        Version: 3 (0x2)
        Serial Number:
            3c:9d:c5:5e:00:99:81:19:cd:eb:28:b6:38:b7:a0:86:01:a7:34:e0
        Signature Algorithm: sha256WithRSAEncryption
        Issuer: C=ES, ST=Barcelona, O=Network Security Org, OU=Certification, CN=10.0.2.4
        Validity
            Not Before: Oct 18 16:39:38 2021 GMT
            Not After : Oct 18 16:39:38 2031 GMT
        Subject: C=ES, ST=Barcelona, O=Network Security Org, OU=Certification, CN=10.0.2.4
        Subject Public Key Info:
            Public Key Algorithm: rsaEncryption
                RSA Public-Key: (4096 bit)
                Modulus:
                    00:c4:18:ec:99:32:90:92:6d:02:99:81:24:62:d2:
                    0b:fb:82:8d:f0:5a:9b:33:1f:72:f7:d2:b6:e0:b0:
                    3d:fb:c1:64:b4:b7:49:6e:55:25:98:17:21:cc:75:
                    27:87:9e:10:48:07:87:1d:21:6a:d5:d9:b1:e8:be:
                    66:61:9b:68:cf:fb:6f:bb:22:cb:4d:35:84:75:df:
                    1b:58:74:a6:7b:08:9e:d6:94:31:68:a8:42:45:ee:
                    84:78:63:71:9f:5f:b4:44:af:e1:9e:2c:47:db:20:
                    68:cd:53:b3:7c:a3:f3:8d:46:24:04:fe:aa:42:e5:
                    c3:8a:8c:5d:3e:ec:f3:db:37:26:1d:48:b2:f5:94:
                    8e:04:d1:8f:46:a8:b9:74:86:26:23:d4:57:e9:d2:
                    3c:06:d6:73:1a:8c:e4:bd:50:4b:e9:c4:63:28:4b:
                    96:12:fe:99:25:9e:72:56:86:16:ea:1e:dd:d0:50:
                    6d:20:67:e2:26:fb:3e:57:80:0b:f2:05:11:04:d8:
                    9c:b3:9c:72:4f:a6:f0:28:00:bc:95:4c:f7:40:97:
                    16:47:de:cd:20:de:08:90:30:6e:15:72:de:19:78:
                    7f:c5:42:ba:bf:d1:ea:e8:aa:af:c6:45:fa:80:fc:
                    22:bc:21:41:d5:bf:ac:f7:fa:8e:a3:d7:8a:85:47:
                    a3:84:f9:f7:69:a0:4e:69:c9:0f:18:34:a5:b8:81:
                    ed:07:02:f0:b3:79:59:75:f8:25:b2:74:7c:e5:f2:
                    b2:9c:37:04:f0:3a:5f:d2:a7:88:f2:97:f7:2b:a7:
                    f3:2e:2a:4e:ad:e2:c9:44:d7:68:f1:ab:c6:c9:b9:
                    78:18:7d:65:49:24:fb:66:9a:17:87:46:85:bf:6b:
                    45:76:bb:4b:35:19:fc:b6:92:de:c5:a1:36:e4:2e:
                    3e:63:65:76:3c:a5:86:cd:6f:a2:42:b6:23:d4:c7:
                    0e:09:00:79:97:c9:44:a7:41:75:b7:71:12:de:53:
                    0f:c2:45:23:21:b2:35:98:5f:b0:b9:f9:77:d7:8f:
                    24:47:ac:55:1d:32:cf:9b:e6:2d:a1:f3:86:78:38:
                    6d:68:8b:ee:8a:9a:ec:59:fd:ba:d9:21:ef:c6:cb:
                    d1:7b:4f:6b:fe:87:4f:51:b4:22:c0:66:7b:cf:9a:
                    43:71:a2:77:34:d6:15:1c:62:df:2b:29:f7:72:34:
                    f4:c2:3a:fe:c3:70:b3:47:a3:79:77:71:8b:db:0e:
                    ab:2b:b4:bd:48:62:5a:83:10:3c:92:c6:da:f3:81:
                    6a:42:bf:2f:f8:93:de:fd:a8:32:59:4b:df:01:aa:
                    f1:b0:26:5b:d9:2a:66:90:fd:2c:0a:ee:29:22:de:
                    c1:1c:53
                Exponent: 65537 (0x10001)
        X509v3 extensions:
            X509v3 Key Usage: critical
                Certificate Sign, CRL Sign
            X509v3 Subject Key Identifier: 
                D2:FC:F4:3E:0B:3A:A5:46:CE:C2:E2:CB:70:03:2E:B3:9F:BF:06:31
            X509v3 Authority Key Identifier: 
                keyid:D2:FC:F4:3E:0B:3A:A5:46:CE:C2:E2:CB:70:03:2E:B3:9F:BF:06:31

            X509v3 Basic Constraints: critical
                CA:TRUE
    Signature Algorithm: sha256WithRSAEncryption
         af:56:9e:12:22:5a:da:1d:e1:1a:75:4a:a9:ae:3c:78:6a:a2:
         45:ae:93:2d:45:ab:48:f6:19:06:0e:34:d6:1c:64:f3:c4:e0:
         56:dc:a9:4a:de:82:a7:5b:6d:d2:bd:2a:ad:63:8e:a6:8a:38:
         ae:b3:48:26:55:5d:b0:2c:b6:2e:f6:10:37:e2:a6:2d:e6:51:
         1e:4f:5f:ab:30:b9:b2:1e:5c:f4:27:f0:34:e2:9c:23:74:1a:
         ca:0e:8e:49:6b:55:db:66:b4:f0:d5:77:74:4b:c3:fe:ab:1a:
         f8:f3:4a:ed:25:f4:de:8f:6c:6b:89:fa:37:ea:45:70:89:d1:
         4a:44:d4:36:97:09:b6:15:95:b2:c8:28:3f:a5:fb:03:c4:dc:
         bf:ae:86:b5:4a:bf:fc:ce:9e:c7:6f:8b:8f:e3:71:8f:d7:aa:
         8b:62:67:2a:63:26:f1:81:96:5e:e6:19:4a:e9:c7:5f:ac:71:
         1b:83:30:1a:79:19:ce:4e:9f:a9:c6:5b:69:29:d6:79:08:f8:
         30:64:41:16:94:5b:7b:8d:1d:ef:bd:dc:de:1b:29:7b:fd:cd:
         8e:92:70:86:e0:93:d6:97:ed:54:f5:64:9d:23:2d:11:9b:49:
         a3:3a:08:da:5b:16:61:85:ff:bb:40:67:71:6c:36:f1:50:c8:
         f2:0a:fa:2a:93:f0:a6:be:d8:11:c9:56:00:e9:09:0a:f1:e3:
         e4:2b:00:ce:4e:9e:2c:72:9b:ae:9d:df:31:88:39:78:2c:cb:
         81:32:fb:c8:68:53:f8:e9:96:e2:db:9a:cd:8d:bd:4f:3b:fc:
         c7:9d:10:fd:e7:3c:6c:90:4d:4b:ad:e8:87:02:60:9c:dc:22:
         e8:6c:6a:cc:7c:44:47:2b:43:a8:47:ab:fd:2f:ad:d7:26:7f:
         0d:37:84:89:05:36:c5:72:c5:73:28:bf:d3:c5:d6:d2:4e:33:
         b8:1e:1f:4c:a7:10:60:37:c8:4c:a5:cb:98:50:cc:73:90:a2:
         6b:6a:ed:08:1b:f5:05:8e:f0:7a:42:e1:b3:1d:6b:5f:f6:80:
         32:b2:b8:25:30:a8:d1:8d:4a:7b:60:94:87:94:68:f4:d8:db:
         c8:f8:fd:e1:16:0b:ef:c1:3d:a5:e0:f7:81:2f:3f:09:4e:10:
         a9:3c:4e:6d:f6:68:1d:25:9d:57:49:de:20:8e:0e:b0:1e:ea:
         51:71:d4:4c:9f:74:03:5e:fc:98:98:12:20:0a:2c:2a:e3:71:
         e9:c5:6f:1d:2b:fe:ae:2b:fb:b6:b2:e8:06:8f:d6:19:13:87:
         58:07:2e:62:9d:ce:77:f0:22:de:3a:cb:3d:1f:05:e4:1c:e6:
         12:57:b5:08:45:8b:d6:36
-----BEGIN CERTIFICATE-----
MIIFxzCCA6+gAwIBAgIUPJ3FXgCZgRnN6yi2OLeghgGnNOAwDQYJKoZIhvcNAQEL
BQAwazELMAkGA1UEBhMCRVMxEjAQBgNVBAgMCUJhcmNlbG9uYTEdMBsGA1UECgwU
TmV0d29yayBTZWN1cml0eSBPcmcxFjAUBgNVBAsMDUNlcnRpZmljYXRpb24xETAP
BgNVBAMMCDEwLjAuMi40MB4XDTIxMTAxODE2MzkzOFoXDTMxMTAxODE2MzkzOFow
azELMAkGA1UEBhMCRVMxEjAQBgNVBAgMCUJhcmNlbG9uYTEdMBsGA1UECgwUTmV0
d29yayBTZWN1cml0eSBPcmcxFjAUBgNVBAsMDUNlcnRpZmljYXRpb24xETAPBgNV
BAMMCDEwLjAuMi40MIICIjANBgkqhkiG9w0BAQEFAAOCAg8AMIICCgKCAgEAxBjs
mTKQkm0CmYEkYtIL+4KN8FqbMx9y99K24LA9+8FktLdJblUlmBchzHUnh54QSAeH
HSFq1dmx6L5mYZtoz/tvuyLLTTWEdd8bWHSmewie1pQxaKhCRe6EeGNxn1+0RK/h
nixH2yBozVOzfKPzjUYkBP6qQuXDioxdPuzz2zcmHUiy9ZSOBNGPRqi5dIYmI9RX
6dI8BtZzGozkvVBL6cRjKEuWEv6ZJZ5yVoYW6h7d0FBtIGfiJvs+V4AL8gURBNic
s5xyT6bwKAC8lUz3QJcWR97NIN4IkDBuFXLeGXh/xUK6v9Hq6KqvxkX6gPwivCFB
1b+s9/qOo9eKhUejhPn3aaBOackPGDSluIHtBwLws3lZdfglsnR85fKynDcE8Dpf
0qeI8pf3K6fzLipOreLJRNdo8avGybl4GH1lSST7ZpoXh0aFv2tFdrtLNRn8tpLe
xaE25C4+Y2V2PKWGzW+iQrYj1McOCQB5l8lEp0F1t3ES3lMPwkUjIbI1mF+wufl3
148kR6xVHTLPm+YtofOGeDhtaIvuiprsWf262SHvxsvRe09r/odPUbQiwGZ7z5pD
caJ3NNYVHGLfKyn3cjT0wjr+w3CzR6N5d3GL2w6rK7S9SGJagxA8ksba84FqQr8v
+JPe/agyWUvfAarxsCZb2SpmkP0sCu4pIt7BHFMCAwEAAaNjMGEwDgYDVR0PAQH/
BAQDAgEGMB0GA1UdDgQWBBTS/PQ+CzqlRs7C4stwAy6zn78GMTAfBgNVHSMEGDAW
gBTS/PQ+CzqlRs7C4stwAy6zn78GMTAPBgNVHRMBAf8EBTADAQH/MA0GCSqGSIb3
DQEBCwUAA4ICAQCvVp4SIlraHeEadUqprjx4aqJFrpMtRatI9hkGDjTWHGTzxOBW
3KlK3oKnW23SvSqtY46mijius0gmVV2wLLYu9hA34qYt5lEeT1+rMLmyHlz0J/A0
4pwjdBrKDo5Ja1XbZrTw1Xd0S8P+qxr480rtJfTej2xrifo36kVwidFKRNQ2lwm2
FZWyyCg/pfsDxNy/roa1Sr/8zp7Hb4uP43GP16qLYmcqYybxgZZe5hlK6cdfrHEb
gzAaeRnOTp+pxltpKdZ5CPgwZEEWlFt7jR3vvdzeGyl7/c2OknCG4JPWl+1U9WSd
Iy0Rm0mjOgjaWxZhhf+7QGdxbDbxUMjyCvoqk/CmvtgRyVYA6QkK8ePkKwDOTp4s
cpuund8xiDl4LMuBMvvIaFP46Zbi25rNjb1PO/zHnRD95zxskE1LreiHAmCc3CLo
bGrMfERHK0OoR6v9L63XJn8NN4SJBTbFcsVzKL/TxdbSTjO4Hh9MpxBgN8hMpcuY
UMxzkKJrau0IG/UFjvB6QuGzHWtf9oAysrglMKjRjUp7YJSHlGj02NvI+P3hFgvv
wT2l4PeBLz8JThCpPE5t9mgdJZ1XSd4gjg6wHupRcdRMn3QDXvyYmBIgCiwq43Hp
xW8dK/6uK/u2sugGj9YZE4dYBy5inc538CLeOss9HwXkHOYSV7UIRYvWNg==
-----END CERTIFICATE-----
