Certificate:
    Data:
        Version: 3 (0x2)
        Serial Number:
            3c:9d:c5:5e:00:99:81:19:cd:eb:28:b6:38:b7:a0:86:01:a7:34:e1
        Signature Algorithm: sha256WithRSAEncryption
        Issuer: C=ES, ST=Barcelona, O=Network Security Org, OU=Certification, CN=10.0.2.4
        Validity
            Not Before: Oct 18 16:43:37 2021 GMT
            Not After : Oct 18 16:43:37 2022 GMT
        Subject: C=ES, ST=Barcelona, O=Network Security Org, OU=OCSP, CN=10.0.2.4
        Subject Public Key Info:
            Public Key Algorithm: rsaEncryption
                RSA Public-Key: (4096 bit)
                Modulus:
                    00:e7:6e:c5:f4:1a:4b:ad:be:ec:2b:4a:3c:5f:1c:
                    fe:93:69:74:79:c9:48:fc:74:8a:6f:d9:d9:c7:ef:
                    c3:af:28:28:5e:6a:25:f5:8b:b8:54:9d:df:22:52:
                    0d:6d:7b:da:ff:27:5d:e3:a2:56:29:88:f8:75:21:
                    a9:45:66:1c:e0:06:d8:d0:17:94:b9:16:26:f8:72:
                    6a:e6:a9:a6:2e:0d:8a:a3:b2:68:fa:69:99:9b:51:
                    2d:13:2d:d5:9a:b1:4b:73:6e:14:f1:51:33:02:39:
                    f0:50:0d:55:d1:9f:e2:51:b8:bd:4a:09:15:8b:3f:
                    95:36:7c:f5:77:da:92:b6:d6:8b:0b:8e:eb:9c:75:
                    4d:ae:4e:6c:17:4e:24:8e:31:65:9f:78:20:02:cb:
                    49:f3:99:1e:37:73:d1:8a:c5:31:7f:46:10:41:56:
                    21:1e:3b:12:1f:5f:0b:c5:9f:13:15:0d:a4:87:cd:
                    7a:db:19:9a:4c:72:69:6b:a7:a3:b3:04:9f:ac:2e:
                    fb:ee:92:6f:7a:57:4a:74:29:9d:3b:16:8e:05:cc:
                    52:2d:8e:79:7e:63:a2:4f:86:7d:7e:c7:7e:d7:68:
                    56:db:5f:74:c8:8d:ab:cc:37:f4:cd:be:49:79:03:
                    4c:45:f8:96:3f:c7:3c:3e:ab:09:d9:83:ae:98:7d:
                    81:9f:d8:10:94:12:5e:13:a5:c9:8b:44:82:27:4f:
                    5f:67:7a:53:85:bb:d5:17:90:2b:49:cb:8b:8b:f7:
                    61:c4:65:01:8a:a9:9a:9d:6b:2a:81:63:d6:50:bb:
                    ed:f4:70:43:75:01:f7:ce:43:0a:18:97:82:ea:3c:
                    eb:1d:4f:9f:e0:b7:fa:c7:d4:3f:c2:1b:dc:e4:93:
                    94:7a:aa:13:10:6c:20:08:d5:9d:e4:ac:3b:ab:e9:
                    c5:38:90:40:a0:5a:42:7c:07:98:e6:a0:af:e9:4b:
                    c6:71:4f:ee:69:2f:09:11:3e:57:28:80:92:a4:7c:
                    73:7f:86:f7:7b:0e:32:35:e6:86:b3:a8:f2:f5:6c:
                    f0:41:ba:3a:28:2e:25:c3:58:38:70:0b:32:49:3f:
                    70:87:77:bc:43:8e:02:35:8e:f4:b8:71:ff:e0:fd:
                    8d:eb:88:d0:c3:11:34:0a:c2:55:7a:48:ad:38:be:
                    00:28:11:62:e1:32:ed:2b:50:4c:95:1f:69:32:4f:
                    15:5f:ac:09:b4:d1:2b:1e:bc:c2:0d:37:8e:fe:a8:
                    84:ba:73:6d:4c:42:45:3e:42:0b:2b:8c:83:93:a7:
                    a9:54:1c:13:a4:5b:a5:8c:9a:14:26:b5:7f:e1:c3:
                    14:82:dc:c9:58:0c:f2:55:15:25:e8:53:bd:a3:fc:
                    50:a8:d3
                Exponent: 65537 (0x10001)
        X509v3 extensions:
            X509v3 Key Usage: critical
                Digital Signature
            X509v3 Extended Key Usage: critical
                OCSP Signing
            X509v3 Basic Constraints: 
                CA:FALSE
            Netscape Comment: 
                OpenSSL Generated Certificate
            X509v3 Subject Key Identifier: 
                DD:7B:F7:3F:EE:A1:89:5A:40:7A:8F:29:7C:96:5B:C6:CE:6F:FA:95
            X509v3 Authority Key Identifier: 
                keyid:D2:FC:F4:3E:0B:3A:A5:46:CE:C2:E2:CB:70:03:2E:B3:9F:BF:06:31

    Signature Algorithm: sha256WithRSAEncryption
         5f:96:13:43:e9:3c:2a:e9:10:29:35:93:5b:3f:65:73:23:91:
         b5:14:b5:03:be:14:fd:e4:99:2a:2d:13:ca:c7:b5:1f:aa:3e:
         f6:45:bc:6c:50:34:79:49:92:a3:55:7f:3c:25:dc:77:40:7d:
         77:a4:e5:dc:bc:c3:1a:a5:60:08:37:d4:dd:de:69:d5:51:d4:
         c2:a5:0b:91:12:0c:2f:a9:86:28:43:06:d8:28:39:d3:6c:90:
         cf:46:43:e9:f1:60:0a:62:43:2e:7c:d8:ed:39:e4:6e:2f:c9:
         ab:88:3f:d9:33:2d:20:18:be:af:1a:dd:58:65:d6:88:1e:8b:
         e3:dc:55:a9:aa:5d:eb:14:4e:35:0c:59:88:42:05:70:84:25:
         ee:16:0e:b1:d1:8d:18:10:8b:1c:a2:89:dc:5f:e0:dc:e8:b4:
         f6:23:87:c0:47:cb:ba:2f:95:9e:65:56:47:f8:d0:89:55:52:
         99:ce:9b:8c:b1:09:6b:42:8e:2c:aa:f3:87:9f:c8:29:8d:8f:
         7b:37:9a:3a:61:54:87:58:85:27:5d:ac:41:61:df:9a:1e:6b:
         08:dd:55:35:a2:aa:fe:9a:85:2e:36:4e:12:85:07:91:ce:7a:
         ce:7e:56:dd:f6:d6:69:88:19:9c:8c:9c:bc:96:7e:89:fe:13:
         1c:a7:60:fa:89:0f:45:9a:37:5e:27:03:3f:03:47:37:8f:27:
         e5:b4:b1:7b:4b:86:70:a8:67:10:08:05:81:d1:09:4f:05:5a:
         16:e0:d3:8f:8b:f3:c3:e2:44:23:da:ea:31:69:17:18:ff:00:
         43:2c:ff:51:30:55:c8:4b:f9:45:5b:9a:95:d7:df:97:4f:73:
         af:00:dd:d6:23:d6:b2:63:5e:6c:e9:c8:fd:eb:c3:04:c4:a3:
         26:81:3e:6b:e3:66:86:2e:84:ba:ad:cd:7f:ea:ed:f3:97:a9:
         d4:18:9e:cf:41:a6:73:ec:dd:42:07:15:79:8c:e8:51:23:46:
         ab:a5:c3:0b:f9:1f:95:1c:4b:f6:db:2b:11:f4:77:d6:aa:43:
         4e:55:6c:f9:36:cf:23:98:8f:f5:ab:ea:98:37:e7:a7:55:29:
         95:15:db:52:fd:e5:60:c5:7f:5e:67:1f:0a:d7:20:9e:f5:a3:
         6b:9f:bb:e9:6c:34:e8:ec:12:aa:2d:43:41:1a:ea:0b:ac:d5:
         5f:b1:77:e6:01:a8:ac:3e:c9:40:21:55:ac:c4:36:87:1d:fa:
         72:b6:79:86:8c:9e:b3:8f:6b:6d:4b:a6:85:6d:88:81:39:42:
         e3:9e:17:2b:33:43:f2:0f:62:02:c2:c3:8f:f2:a4:d4:f7:5a:
         be:8c:eb:e2:df:2e:9c:b5
-----BEGIN CERTIFICATE-----
MIIGADCCA+igAwIBAgIUPJ3FXgCZgRnN6yi2OLeghgGnNOEwDQYJKoZIhvcNAQEL
BQAwazELMAkGA1UEBhMCRVMxEjAQBgNVBAgMCUJhcmNlbG9uYTEdMBsGA1UECgwU
TmV0d29yayBTZWN1cml0eSBPcmcxFjAUBgNVBAsMDUNlcnRpZmljYXRpb24xETAP
BgNVBAMMCDEwLjAuMi40MB4XDTIxMTAxODE2NDMzN1oXDTIyMTAxODE2NDMzN1ow
YjELMAkGA1UEBhMCRVMxEjAQBgNVBAgMCUJhcmNlbG9uYTEdMBsGA1UECgwUTmV0
d29yayBTZWN1cml0eSBPcmcxDTALBgNVBAsMBE9DU1AxETAPBgNVBAMMCDEwLjAu
Mi40MIICIjANBgkqhkiG9w0BAQEFAAOCAg8AMIICCgKCAgEA527F9BpLrb7sK0o8
Xxz+k2l0eclI/HSKb9nZx+/DrygoXmol9Yu4VJ3fIlINbXva/ydd46JWKYj4dSGp
RWYc4AbY0BeUuRYm+HJq5qmmLg2Ko7Jo+mmZm1EtEy3VmrFLc24U8VEzAjnwUA1V
0Z/iUbi9SgkViz+VNnz1d9qSttaLC47rnHVNrk5sF04kjjFln3ggAstJ85keN3PR
isUxf0YQQVYhHjsSH18LxZ8TFQ2kh8162xmaTHJpa6ejswSfrC777pJveldKdCmd
OxaOBcxSLY55fmOiT4Z9fsd+12hW2190yI2rzDf0zb5JeQNMRfiWP8c8PqsJ2YOu
mH2Bn9gQlBJeE6XJi0SCJ09fZ3pThbvVF5ArScuLi/dhxGUBiqmanWsqgWPWULvt
9HBDdQH3zkMKGJeC6jzrHU+f4Lf6x9Q/whvc5JOUeqoTEGwgCNWd5Kw7q+nFOJBA
oFpCfAeY5qCv6UvGcU/uaS8JET5XKICSpHxzf4b3ew4yNeaGs6jy9WzwQbo6KC4l
w1g4cAsyST9wh3e8Q44CNY70uHH/4P2N64jQwxE0CsJVekitOL4AKBFi4TLtK1BM
lR9pMk8VX6wJtNErHrzCDTeO/qiEunNtTEJFPkILK4yDk6epVBwTpFuljJoUJrV/
4cMUgtzJWAzyVRUl6FO9o/xQqNMCAwEAAaOBpDCBoTAOBgNVHQ8BAf8EBAMCB4Aw
FgYDVR0lAQH/BAwwCgYIKwYBBQUHAwkwCQYDVR0TBAIwADAsBglghkgBhvhCAQ0E
HxYdT3BlblNTTCBHZW5lcmF0ZWQgQ2VydGlmaWNhdGUwHQYDVR0OBBYEFN179z/u
oYlaQHqPKXyWW8bOb/qVMB8GA1UdIwQYMBaAFNL89D4LOqVGzsLiy3ADLrOfvwYx
MA0GCSqGSIb3DQEBCwUAA4ICAQBflhND6Twq6RApNZNbP2VzI5G1FLUDvhT95Jkq
LRPKx7Ufqj72RbxsUDR5SZKjVX88Jdx3QH13pOXcvMMapWAIN9Td3mnVUdTCpQuR
EgwvqYYoQwbYKDnTbJDPRkPp8WAKYkMufNjtOeRuL8mriD/ZMy0gGL6vGt1YZdaI
Hovj3FWpql3rFE41DFmIQgVwhCXuFg6x0Y0YEIscooncX+Dc6LT2I4fAR8u6L5We
ZVZH+NCJVVKZzpuMsQlrQo4sqvOHn8gpjY97N5o6YVSHWIUnXaxBYd+aHmsI3VU1
oqr+moUuNk4ShQeRznrOflbd9tZpiBmcjJy8ln6J/hMcp2D6iQ9FmjdeJwM/A0c3
jyfltLF7S4ZwqGcQCAWB0QlPBVoW4NOPi/PD4kQj2uoxaRcY/wBDLP9RMFXIS/lF
W5qV19+XT3OvAN3WI9ayY15s6cj968MExKMmgT5r42aGLoS6rc1/6u3zl6nUGJ7P
QaZz7N1CBxV5jOhRI0arpcML+R+VHEv22ysR9HfWqkNOVWz5Ns8jmI/1q+qYN+en
VSmVFdtS/eVgxX9eZx8K1yCe9aNrn7vpbDTo7BKqLUNBGuoLrNVfsXfmAaisPslA
IVWsxDaHHfpytnmGjJ6zj2ttS6aFbYiBOULjnhcrM0PyD2ICwsOP8qTU91q+jOvi
3y6ctQ==
-----END CERTIFICATE-----
