Certificate:
    Data:
        Version: 3 (0x2)
        Serial Number:
            70:0e:2f:9e:b6:0b:08:ac:9b:ad:a9:9e:88:9a:83:88:63:6f:82:b4
        Signature Algorithm: sha256WithRSAEncryption
        Issuer: C=ES, ST=Barcelona, O=Network Security Org, OU=Certification, CN=NS Root CA
        Validity
            Not Before: Oct  4 14:06:43 2021 GMT
            Not After : Oct  4 14:06:43 2022 GMT
        Subject: C=ES, ST=Barcelona, O=Network Security Org, OU=Web Servers, CN=NS TLS Web Server
        Subject Public Key Info:
            Public Key Algorithm: rsaEncryption
                RSA Public-Key: (2048 bit)
                Modulus:
                    00:b4:68:b4:64:14:51:6c:07:34:0a:6a:0e:3b:ef:
                    30:d3:9f:57:6b:aa:a0:8e:49:71:4f:f6:54:a2:78:
                    d8:35:72:da:03:d2:2d:33:eb:f5:61:ed:a3:f8:dd:
                    9b:bc:93:8b:a7:ff:f6:8e:b0:eb:83:bd:69:50:b2:
                    47:3f:07:a9:a8:0f:8b:9d:6b:4b:f2:54:dc:b7:71:
                    7b:05:7f:f3:28:1b:5b:44:db:32:9f:fc:1f:7a:31:
                    e4:c5:91:4f:de:f5:4d:24:fc:f7:c6:ca:c7:bd:f1:
                    09:26:28:72:e9:9f:8c:5b:a5:de:6f:b1:aa:9b:0d:
                    e1:f6:cf:db:47:91:78:d1:19:39:e1:59:a9:22:0a:
                    76:7d:c4:08:63:8f:64:30:a1:41:36:c3:22:08:b7:
                    cb:9c:7a:b5:79:9c:6f:05:d9:e7:29:02:21:27:d5:
                    99:13:62:f0:37:ca:2f:eb:02:4c:56:96:a2:ef:49:
                    69:6f:85:0a:9f:d9:bb:b2:a7:78:7d:fc:88:ca:d8:
                    fe:af:0f:1d:f8:bd:2f:44:cd:70:c0:06:39:99:c6:
                    13:34:67:b7:fd:73:8c:39:fc:c2:93:2d:0e:00:40:
                    31:ce:99:9b:f1:04:9d:d4:e0:c9:73:24:3c:ab:08:
                    49:4b:b7:b0:42:2f:48:14:fb:4b:bc:b5:6d:05:16:
                    9f:4f
                Exponent: 65537 (0x10001)
        X509v3 extensions:
            X509v3 Basic Constraints: 
                CA:FALSE
            X509v3 Subject Key Identifier: 
                DE:92:F4:B7:C6:19:B8:AE:4D:C8:B5:26:3C:EF:5C:A9:49:1A:A1:82
            X509v3 Authority Key Identifier: 
                keyid:B3:B8:9C:44:3D:6A:CA:96:01:0A:80:FC:61:BE:9C:72:AD:FF:B5:57

            Authority Information Access: 
                OCSP - URI:http://10.0.2.4

            X509v3 Key Usage: critical
                Digital Signature, Non Repudiation, Key Encipherment, Key Agreement
            X509v3 Extended Key Usage: critical
                TLS Web Server Authentication
    Signature Algorithm: sha256WithRSAEncryption
         22:4e:31:a9:b0:07:05:8e:16:de:f3:9d:72:f6:74:4a:c8:b4:
         ed:ff:b9:bb:bc:9f:2f:26:23:01:2f:9d:1f:2a:c9:03:03:a5:
         85:af:57:02:b3:bc:bb:33:53:c1:9f:df:81:35:ad:00:80:29:
         ea:e2:23:07:95:c2:7d:33:1b:f9:d3:8f:df:b0:8d:d1:38:dc:
         fe:11:90:cf:df:c1:ca:e6:c0:fa:da:6f:20:71:04:ee:4c:6f:
         1a:e2:16:ef:43:c6:36:9c:bb:03:c6:e7:e8:9f:40:f0:07:45:
         1a:29:8f:e0:d7:7b:a4:cb:79:98:a0:49:77:f1:de:7f:91:65:
         56:19:9b:49:01:14:46:5f:24:05:e9:e3:e2:dc:74:1e:88:1e:
         14:26:a2:4d:71:73:61:be:3e:87:7a:70:e3:eb:d5:e0:0a:5a:
         b7:94:56:b4:cf:88:5b:0c:78:23:a4:8a:2c:2c:bf:a8:35:7f:
         68:7a:d6:7a:93:db:0e:83:dd:cb:14:2b:3d:03:0e:fb:42:8e:
         02:89:70:38:b8:cc:f3:53:f2:ea:d1:e1:84:21:77:b5:a5:39:
         a9:94:c6:cf:c7:7f:06:ee:c8:4d:b2:b7:c8:dd:56:72:2a:c6:
         70:31:51:a3:42:d0:18:76:55:e9:ce:fe:cf:ab:9f:05:53:75:
         65:db:e7:6b:dd:d4:40:18:e3:55:b2:8c:0e:3d:db:fe:37:3f:
         0a:39:7f:0a:94:0d:c5:6e:46:d4:5e:40:ce:d5:86:6a:2c:27:
         b1:a7:91:34:53:32:ac:85:63:da:3d:9b:72:02:08:b2:73:ce:
         b1:8e:dd:35:d2:18:6e:a9:39:a8:41:d6:c2:8c:a9:a6:bb:08:
         70:52:d6:4b:4d:8b:26:73:d4:e5:7a:4f:a0:29:ea:34:e8:30:
         91:73:b7:14:40:6c:02:3b:32:9f:ef:74:b8:11:06:aa:4c:95:
         ff:e1:86:c6:ac:53:78:fb:a3:c8:3f:4b:cd:b3:bd:bb:8d:b6:
         d1:76:73:f9:8f:b7:38:c7:4b:f2:e1:3d:76:e9:30:36:ad:e4:
         f0:49:b2:90:72:d1:ed:ff:c0:44:22:15:f9:9e:76:46:10:50:
         19:99:40:be:e2:45:a9:3d:95:63:c7:ed:21:19:36:87:40:dc:
         74:b4:ec:01:d1:3b:5c:55:63:8c:22:76:86:20:7e:e1:38:0e:
         9e:6a:be:9c:4d:13:1f:db:48:c0:8f:55:7b:ff:27:a3:dd:25:
         17:52:37:c9:77:19:53:7e:4b:8c:60:3f:e9:33:fb:8a:7f:bb:
         15:71:39:4a:f5:c8:b3:aa:02:6b:df:36:5f:2e:6c:a4:42:1d:
         2f:f0:45:78:6a:a7:bd:4f
-----BEGIN CERTIFICATE-----
MIIFETCCAvmgAwIBAgIUcA4vnrYLCKybrameiJqDiGNvgrQwDQYJKoZIhvcNAQEL
BQAwbTELMAkGA1UEBhMCRVMxEjAQBgNVBAgMCUJhcmNlbG9uYTEdMBsGA1UECgwU
TmV0d29yayBTZWN1cml0eSBPcmcxFjAUBgNVBAsMDUNlcnRpZmljYXRpb24xEzAR
BgNVBAMMCk5TIFJvb3QgQ0EwHhcNMjExMDA0MTQwNjQzWhcNMjIxMDA0MTQwNjQz
WjByMQswCQYDVQQGEwJFUzESMBAGA1UECAwJQmFyY2Vsb25hMR0wGwYDVQQKDBRO
ZXR3b3JrIFNlY3VyaXR5IE9yZzEUMBIGA1UECwwLV2ViIFNlcnZlcnMxGjAYBgNV
BAMMEU5TIFRMUyBXZWIgU2VydmVyMIIBIjANBgkqhkiG9w0BAQEFAAOCAQ8AMIIB
CgKCAQEAtGi0ZBRRbAc0CmoOO+8w059Xa6qgjklxT/ZUonjYNXLaA9ItM+v1Ye2j
+N2bvJOLp//2jrDrg71pULJHPwepqA+LnWtL8lTct3F7BX/zKBtbRNsyn/wfejHk
xZFP3vVNJPz3xsrHvfEJJihy6Z+MW6Xeb7Gqmw3h9s/bR5F40Rk54VmpIgp2fcQI
Y49kMKFBNsMiCLfLnHq1eZxvBdnnKQIhJ9WZE2LwN8ov6wJMVpai70lpb4UKn9m7
sqd4ffyIytj+rw8d+L0vRM1wwAY5mcYTNGe3/XOMOfzCky0OAEAxzpmb8QSd1ODJ
cyQ8qwhJS7ewQi9IFPtLvLVtBRafTwIDAQABo4GjMIGgMAkGA1UdEwQCMAAwHQYD
VR0OBBYEFN6S9LfGGbiuTci1JjzvXKlJGqGCMB8GA1UdIwQYMBaAFLO4nEQ9asqW
AQqA/GG+nHKt/7VXMCsGCCsGAQUFBwEBBB8wHTAbBggrBgEFBQcwAYYPaHR0cDov
LzEwLjAuMi40MA4GA1UdDwEB/wQEAwID6DAWBgNVHSUBAf8EDDAKBggrBgEFBQcD
ATANBgkqhkiG9w0BAQsFAAOCAgEAIk4xqbAHBY4W3vOdcvZ0Ssi07f+5u7yfLyYj
AS+dHyrJAwOlha9XArO8uzNTwZ/fgTWtAIAp6uIjB5XCfTMb+dOP37CN0Tjc/hGQ
z9/ByubA+tpvIHEE7kxvGuIW70PGNpy7A8bn6J9A8AdFGimP4Nd7pMt5mKBJd/He
f5FlVhmbSQEURl8kBenj4tx0HogeFCaiTXFzYb4+h3pw4+vV4Apat5RWtM+IWwx4
I6SKLCy/qDV/aHrWepPbDoPdyxQrPQMO+0KOAolwOLjM81Py6tHhhCF3taU5qZTG
z8d/Bu7ITbK3yN1WcirGcDFRo0LQGHZV6c7+z6ufBVN1Zdvna93UQBjjVbKMDj3b
/jc/Cjl/CpQNxW5G1F5AztWGaiwnsaeRNFMyrIVj2j2bcgIIsnPOsY7dNdIYbqk5
qEHWwoypprsIcFLWS02LJnPU5XpPoCnqNOgwkXO3FEBsAjsyn+90uBEGqkyV/+GG
xqxTePujyD9LzbO9u4220XZz+Y+3OMdL8uE9dukwNq3k8EmykHLR7f/ARCIV+Z52
RhBQGZlAvuJFqT2VY8ftIRk2h0DcdLTsAdE7XFVjjCJ2hiB+4TgOnmq+nE0TH9tI
wI9Ve/8no90lF1I3yXcZU35LjGA/6TP7in+7FXE5SvXIs6oCa982Xy5spEIdL/BF
eGqnvU8=
-----END CERTIFICATE-----
