Certificate:
    Data:
        Version: 3 (0x2)
        Serial Number:
            70:0e:2f:9e:b6:0b:08:ac:9b:ad:a9:9e:88:9a:83:88:63:6f:82:b1
        Signature Algorithm: sha256WithRSAEncryption
        Issuer: C=ES, ST=Barcelona, O=Network Security Org, OU=Certification, CN=NS Root CA
        Validity
            Not Before: Oct  4 13:55:04 2021 GMT
            Not After : Oct  4 13:55:04 2031 GMT
        Subject: C=ES, ST=Barcelona, O=Network Security Org, OU=Certification, CN=NS Root CA
        Subject Public Key Info:
            Public Key Algorithm: rsaEncryption
                RSA Public-Key: (4096 bit)
                Modulus:
                    00:b5:67:0a:23:5b:ba:6c:70:41:64:4a:8d:76:bc:
                    84:ea:9f:e7:0b:5d:6c:f2:65:15:71:5a:11:d8:6f:
                    96:f2:6c:79:7f:4a:90:28:32:85:da:79:b0:6d:62:
                    27:a5:00:6e:4a:24:c8:da:65:52:f5:de:d7:f2:0b:
                    76:e2:50:87:7c:3d:84:62:9f:b2:65:a2:34:b9:2f:
                    15:58:d9:ed:6a:67:eb:1f:91:00:7f:7c:03:93:c5:
                    bc:00:f7:d9:e5:1f:12:da:5a:ff:41:53:bb:32:e9:
                    13:e2:01:67:da:9c:af:c9:dd:33:06:49:8c:92:66:
                    68:b6:9f:3e:b8:69:fa:df:19:b7:2c:fd:00:9f:61:
                    a8:58:0a:94:a6:bf:6d:e6:f7:42:66:32:bb:c5:68:
                    a7:39:50:1c:04:d4:38:1f:c9:6d:ab:8e:e4:f7:a7:
                    e7:2b:22:a8:2f:96:e4:13:2d:b9:48:fb:03:88:7f:
                    a7:94:89:d9:b1:6a:b0:81:69:4a:26:b0:ef:c1:c9:
                    49:5e:a2:c1:b6:97:ee:6f:88:93:30:4b:b9:01:23:
                    10:75:78:51:f6:3c:7e:d5:c4:45:56:d5:30:d1:1a:
                    bb:b1:3d:8c:24:7e:cc:52:e9:70:01:ea:fe:5b:29:
                    1a:ce:4f:88:e5:1e:86:6e:97:8e:ae:9a:1a:06:e9:
                    99:58:a9:95:7b:09:76:cc:fa:c9:1e:9a:7d:4f:74:
                    3a:10:25:24:91:77:67:b4:b6:94:98:e9:cc:67:79:
                    6a:5e:b3:63:1e:d2:bc:99:84:08:07:ef:0f:40:14:
                    01:e7:cd:23:6a:c1:8a:da:f8:3f:ea:3a:ae:f7:3f:
                    af:0c:4c:f1:fd:bb:aa:48:f8:18:6d:0f:1c:78:4c:
                    45:2f:5a:5b:a8:ad:19:c5:7a:f9:6a:e8:67:a9:c3:
                    57:02:99:d4:1e:65:92:36:d2:d3:d6:f0:18:8c:e4:
                    e0:6c:65:e9:da:9a:e8:f2:bc:86:a6:62:dd:28:68:
                    f8:c1:6f:d5:30:cc:38:7c:3f:8f:55:a0:84:26:01:
                    92:33:1b:ab:97:58:7f:57:fc:7a:d9:3a:8b:b7:0e:
                    14:d5:92:91:7f:34:cb:07:fb:9a:dc:e7:b7:b5:35:
                    56:23:b5:7a:b2:9b:0a:96:07:8f:c2:36:61:19:2d:
                    cf:8a:02:e1:2f:6f:86:92:77:51:ca:77:d6:3f:f8:
                    c6:ef:bd:b5:1c:88:4e:9b:fc:5e:6b:85:84:d9:ef:
                    4f:d8:3c:da:a6:06:f4:42:9a:54:69:9d:24:f1:00:
                    f2:8d:d5:43:10:e2:ab:28:5b:4d:70:b5:e3:d1:fb:
                    eb:3e:b1:4e:2f:ea:0e:69:98:01:be:0a:48:89:e8:
                    98:29:37
                Exponent: 65537 (0x10001)
        X509v3 extensions:
            X509v3 Key Usage: critical
                Certificate Sign, CRL Sign
            X509v3 Subject Key Identifier: 
                B3:B8:9C:44:3D:6A:CA:96:01:0A:80:FC:61:BE:9C:72:AD:FF:B5:57
            X509v3 Authority Key Identifier: 
                keyid:B3:B8:9C:44:3D:6A:CA:96:01:0A:80:FC:61:BE:9C:72:AD:FF:B5:57

            X509v3 Basic Constraints: critical
                CA:TRUE
    Signature Algorithm: sha256WithRSAEncryption
         54:4e:a0:46:f8:1b:c7:1a:52:9f:6f:1e:05:0d:57:f8:a5:6e:
         0d:ed:96:b8:fc:96:17:e4:08:db:ee:ee:7f:83:89:0e:d2:c7:
         cf:b5:f2:fc:50:55:e0:c4:8e:66:66:28:8f:60:35:07:b3:b0:
         db:43:44:e9:b1:14:ea:a4:c2:39:d2:8f:6b:32:d6:02:64:6f:
         93:8b:82:10:1e:43:70:6f:07:31:5e:a4:2e:5e:66:43:0d:db:
         67:47:fc:2f:a3:25:a7:de:61:2a:cb:c7:23:35:a3:3f:28:10:
         4e:4e:d1:ba:da:66:9b:db:28:06:cf:c3:63:c5:32:0f:20:27:
         0b:0c:a2:07:ec:df:ca:ff:b0:95:6a:06:53:22:01:8c:0e:35:
         78:b1:ce:5e:01:e4:58:d1:a9:10:82:72:3b:45:8f:bd:f4:11:
         0c:b2:c4:77:4d:1f:5c:52:20:ed:f8:47:5d:e6:1a:9a:3b:c3:
         c4:d8:28:dd:5e:58:ef:63:8a:a2:9e:cc:0a:fb:66:d6:a7:a4:
         07:43:62:fa:90:23:24:9b:e3:92:3b:30:39:f5:29:6d:c9:eb:
         62:4b:a3:79:57:0b:42:5b:7e:a1:7a:7c:41:fd:c6:86:28:5d:
         f4:15:d6:9e:f2:a1:c9:ea:90:fa:84:3b:15:fd:b3:03:18:8e:
         2e:c6:54:3c:cb:79:76:ad:94:a4:01:44:ed:e0:d9:16:51:4d:
         6f:7c:6a:52:01:e5:4e:bf:3d:91:e3:70:8e:8f:fe:e6:24:6b:
         1b:b3:43:bb:f3:82:cd:7b:dc:28:45:07:b1:65:68:ea:88:fb:
         9c:65:fc:3d:88:cb:00:9c:63:88:6b:55:a0:92:31:01:ef:4d:
         9e:0b:12:4b:f8:29:71:9d:de:a1:3a:b3:3e:6c:bb:c8:dc:d2:
         56:25:4e:0d:cb:62:01:45:d9:dc:4c:df:0b:95:1e:0e:a6:24:
         57:03:88:e6:e3:58:27:a9:2d:82:c1:d4:b1:eb:e8:bd:59:98:
         0f:11:f9:2f:28:b8:56:69:a2:9a:b1:2d:1b:d6:4e:96:4d:b1:
         32:69:a8:34:19:ca:9b:cb:17:9e:b0:fd:2d:05:a1:2c:90:55:
         a8:46:dc:90:8d:f2:57:02:2a:86:0b:e5:e1:ca:44:b1:9f:5d:
         52:73:39:36:e3:ed:40:9e:a0:06:43:c7:15:ba:c6:7d:35:e2:
         d1:61:b9:a0:ab:15:e8:b6:29:31:2d:41:ee:c5:d0:59:5d:fe:
         77:92:56:8c:49:16:34:87:db:9a:91:b5:7f:11:4e:d0:74:8b:
         f5:51:76:d9:60:cd:97:a5:98:df:23:45:38:43:fa:b2:a2:7b:
         5f:5d:f3:97:a6:0f:40:70
-----BEGIN CERTIFICATE-----
MIIFyzCCA7OgAwIBAgIUcA4vnrYLCKybrameiJqDiGNvgrEwDQYJKoZIhvcNAQEL
BQAwbTELMAkGA1UEBhMCRVMxEjAQBgNVBAgMCUJhcmNlbG9uYTEdMBsGA1UECgwU
TmV0d29yayBTZWN1cml0eSBPcmcxFjAUBgNVBAsMDUNlcnRpZmljYXRpb24xEzAR
BgNVBAMMCk5TIFJvb3QgQ0EwHhcNMjExMDA0MTM1NTA0WhcNMzExMDA0MTM1NTA0
WjBtMQswCQYDVQQGEwJFUzESMBAGA1UECAwJQmFyY2Vsb25hMR0wGwYDVQQKDBRO
ZXR3b3JrIFNlY3VyaXR5IE9yZzEWMBQGA1UECwwNQ2VydGlmaWNhdGlvbjETMBEG
A1UEAwwKTlMgUm9vdCBDQTCCAiIwDQYJKoZIhvcNAQEBBQADggIPADCCAgoCggIB
ALVnCiNbumxwQWRKjXa8hOqf5wtdbPJlFXFaEdhvlvJseX9KkCgyhdp5sG1iJ6UA
bkokyNplUvXe1/ILduJQh3w9hGKfsmWiNLkvFVjZ7Wpn6x+RAH98A5PFvAD32eUf
Etpa/0FTuzLpE+IBZ9qcr8ndMwZJjJJmaLafPrhp+t8Ztyz9AJ9hqFgKlKa/beb3
QmYyu8VopzlQHATUOB/JbauO5Pen5ysiqC+W5BMtuUj7A4h/p5SJ2bFqsIFpSiaw
78HJSV6iwbaX7m+IkzBLuQEjEHV4UfY8ftXERVbVMNEau7E9jCR+zFLpcAHq/lsp
Gs5PiOUehm6Xjq6aGgbpmViplXsJdsz6yR6afU90OhAlJJF3Z7S2lJjpzGd5al6z
Yx7SvJmECAfvD0AUAefNI2rBitr4P+o6rvc/rwxM8f27qkj4GG0PHHhMRS9aW6it
GcV6+WroZ6nDVwKZ1B5lkjbS09bwGIzk4Gxl6dqa6PK8hqZi3Sho+MFv1TDMOHw/
j1WghCYBkjMbq5dYf1f8etk6i7cOFNWSkX80ywf7mtznt7U1ViO1erKbCpYHj8I2
YRktz4oC4S9vhpJ3Ucp31j/4xu+9tRyITpv8XmuFhNnvT9g82qYG9EKaVGmdJPEA
8o3VQxDiqyhbTXC149H76z6xTi/qDmmYAb4KSInomCk3AgMBAAGjYzBhMA4GA1Ud
DwEB/wQEAwIBBjAdBgNVHQ4EFgQUs7icRD1qypYBCoD8Yb6ccq3/tVcwHwYDVR0j
BBgwFoAUs7icRD1qypYBCoD8Yb6ccq3/tVcwDwYDVR0TAQH/BAUwAwEB/zANBgkq
hkiG9w0BAQsFAAOCAgEAVE6gRvgbxxpSn28eBQ1X+KVuDe2WuPyWF+QI2+7uf4OJ
DtLHz7Xy/FBV4MSOZmYoj2A1B7Ow20NE6bEU6qTCOdKPazLWAmRvk4uCEB5DcG8H
MV6kLl5mQw3bZ0f8L6Mlp95hKsvHIzWjPygQTk7Rutpmm9soBs/DY8UyDyAnCwyi
B+zfyv+wlWoGUyIBjA41eLHOXgHkWNGpEIJyO0WPvfQRDLLEd00fXFIg7fhHXeYa
mjvDxNgo3V5Y72OKop7MCvtm1qekB0Ni+pAjJJvjkjswOfUpbcnrYkujeVcLQlt+
oXp8Qf3Ghihd9BXWnvKhyeqQ+oQ7Ff2zAxiOLsZUPMt5dq2UpAFE7eDZFlFNb3xq
UgHlTr89keNwjo/+5iRrG7NDu/OCzXvcKEUHsWVo6oj7nGX8PYjLAJxjiGtVoJIx
Ae9NngsSS/gpcZ3eoTqzPmy7yNzSViVODctiAUXZ3EzfC5UeDqYkVwOI5uNYJ6kt
gsHUsevovVmYDxH5Lyi4VmmimrEtG9ZOlk2xMmmoNBnKm8sXnrD9LQWhLJBVqEbc
kI3yVwIqhgvl4cpEsZ9dUnM5NuPtQJ6gBkPHFbrGfTXi0WG5oKsV6LYpMS1B7sXQ
WV3+d5JWjEkWNIfbmpG1fxFO0HSL9VF22WDNl6WY3yNFOEP6sqJ7X13zl6YPQHA=
-----END CERTIFICATE-----
