Certificate:
    Data:
        Version: 3 (0x2)
        Serial Number:
            70:0e:2f:9e:b6:0b:08:ac:9b:ad:a9:9e:88:9a:83:88:63:6f:82:b5
        Signature Algorithm: sha256WithRSAEncryption
        Issuer: C=ES, ST=Barcelona, O=Network Security Org, OU=Certification, CN=NS Root CA
        Validity
            Not Before: Oct  4 14:24:06 2021 GMT
            Not After : Oct  4 14:24:06 2022 GMT
        Subject: C=ES, ST=Barcelona, O=Network Security Org, OU=Web Servers, CN=NS TLS Web Server
        Subject Public Key Info:
            Public Key Algorithm: rsaEncryption
                RSA Public-Key: (2048 bit)
                Modulus:
                    00:b4:68:b4:64:14:51:6c:07:34:0a:6a:0e:3b:ef:
                    30:d3:9f:57:6b:aa:a0:8e:49:71:4f:f6:54:a2:78:
                    d8:35:72:da:03:d2:2d:33:eb:f5:61:ed:a3:f8:dd:
                    9b:bc:93:8b:a7:ff:f6:8e:b0:eb:83:bd:69:50:b2:
                    47:3f:07:a9:a8:0f:8b:9d:6b:4b:f2:54:dc:b7:71:
                    7b:05:7f:f3:28:1b:5b:44:db:32:9f:fc:1f:7a:31:
                    e4:c5:91:4f:de:f5:4d:24:fc:f7:c6:ca:c7:bd:f1:
                    09:26:28:72:e9:9f:8c:5b:a5:de:6f:b1:aa:9b:0d:
                    e1:f6:cf:db:47:91:78:d1:19:39:e1:59:a9:22:0a:
                    76:7d:c4:08:63:8f:64:30:a1:41:36:c3:22:08:b7:
                    cb:9c:7a:b5:79:9c:6f:05:d9:e7:29:02:21:27:d5:
                    99:13:62:f0:37:ca:2f:eb:02:4c:56:96:a2:ef:49:
                    69:6f:85:0a:9f:d9:bb:b2:a7:78:7d:fc:88:ca:d8:
                    fe:af:0f:1d:f8:bd:2f:44:cd:70:c0:06:39:99:c6:
                    13:34:67:b7:fd:73:8c:39:fc:c2:93:2d:0e:00:40:
                    31:ce:99:9b:f1:04:9d:d4:e0:c9:73:24:3c:ab:08:
                    49:4b:b7:b0:42:2f:48:14:fb:4b:bc:b5:6d:05:16:
                    9f:4f
                Exponent: 65537 (0x10001)
        X509v3 extensions:
            X509v3 Basic Constraints: 
                CA:FALSE
            X509v3 Subject Key Identifier: 
                DE:92:F4:B7:C6:19:B8:AE:4D:C8:B5:26:3C:EF:5C:A9:49:1A:A1:82
            X509v3 Authority Key Identifier: 
                keyid:B3:B8:9C:44:3D:6A:CA:96:01:0A:80:FC:61:BE:9C:72:AD:FF:B5:57

            Authority Information Access: 
                OCSP - URI:http://10.0.2.4

            X509v3 Key Usage: critical
                Digital Signature, Non Repudiation, Key Encipherment, Key Agreement
            X509v3 Extended Key Usage: critical
                TLS Web Server Authentication
    Signature Algorithm: sha256WithRSAEncryption
         28:ee:07:16:fa:a4:50:7f:01:de:a3:fc:9b:1c:2c:94:a4:e6:
         ec:ea:9a:9b:b4:43:da:e6:6d:28:94:48:a5:0f:67:97:5a:21:
         7d:d8:35:af:99:55:42:93:3f:e4:14:c4:38:b6:73:b2:5b:fe:
         b1:0c:c8:6b:42:f0:23:64:fd:90:2a:b1:46:2e:bd:9f:57:96:
         63:82:c7:fc:cb:1c:16:f7:52:6b:14:25:7c:17:2b:bc:46:de:
         3f:7a:de:11:87:27:f7:73:c4:73:27:e7:cd:b1:c9:e9:49:2a:
         a1:4a:3d:41:52:0f:94:c1:15:67:07:f2:75:bc:0d:77:79:a3:
         13:df:c6:f6:59:c2:3a:1f:f1:d1:e3:9c:92:05:08:31:78:95:
         0c:ca:92:cd:5e:52:98:c7:d9:63:1f:25:cd:91:ac:31:d9:0c:
         39:73:58:b9:71:77:3a:5e:86:b7:17:40:e3:81:ef:21:f8:58:
         93:dc:2a:ae:a5:7a:c6:87:95:7a:be:ef:60:19:9b:20:49:63:
         56:1b:d2:cb:29:85:be:28:1e:e5:e0:db:29:16:68:03:e1:8d:
         00:3c:5c:6e:8d:a5:43:bf:db:51:72:46:83:ce:de:cb:bc:d1:
         20:e8:55:69:e9:47:88:e0:69:cf:24:d8:99:cb:24:87:14:09:
         52:6e:54:64:74:13:67:15:cd:88:62:ac:b2:6b:dc:96:c5:8e:
         bc:a9:05:79:8b:22:30:2d:7a:cb:01:9f:57:79:6d:b5:9a:1e:
         c2:72:f6:fd:9b:17:ca:a5:24:0f:be:69:5b:c1:89:39:07:81:
         bd:1c:ec:f3:42:10:b9:01:00:4c:a6:0f:d3:d7:ba:d0:4f:a3:
         68:33:d2:ec:00:da:1a:f2:45:d7:a6:08:4f:b3:46:b1:40:3d:
         14:90:6a:23:38:f8:bf:12:b1:54:96:56:fa:d8:bc:53:66:43:
         e3:e5:5f:51:34:ee:28:83:36:81:fe:a8:7a:a8:1c:e1:d9:68:
         1c:a5:2d:2b:19:ca:9a:1f:cf:0b:48:60:23:f4:b2:4b:3f:60:
         25:f8:0e:f0:30:1d:b9:d4:33:55:a7:7a:31:53:b2:3e:21:4b:
         34:f4:e6:fc:f6:9a:07:a7:0c:56:d8:01:cb:1c:c8:d6:6c:01:
         2a:e4:35:ab:d8:e8:1d:f3:cc:1f:25:92:61:a7:6c:8c:f4:5e:
         bf:df:4c:ab:ab:94:66:11:2a:27:b7:04:db:a1:f7:d4:f7:c6:
         22:25:2e:a9:e2:d9:3a:a9:0f:be:ba:db:84:bf:d7:b5:0b:cf:
         82:da:31:94:1b:cd:09:4b:e5:dd:84:85:de:0a:49:46:08:b7:
         94:ab:aa:03:ae:fd:f4:25
-----BEGIN CERTIFICATE-----
MIIFETCCAvmgAwIBAgIUcA4vnrYLCKybrameiJqDiGNvgrUwDQYJKoZIhvcNAQEL
BQAwbTELMAkGA1UEBhMCRVMxEjAQBgNVBAgMCUJhcmNlbG9uYTEdMBsGA1UECgwU
TmV0d29yayBTZWN1cml0eSBPcmcxFjAUBgNVBAsMDUNlcnRpZmljYXRpb24xEzAR
BgNVBAMMCk5TIFJvb3QgQ0EwHhcNMjExMDA0MTQyNDA2WhcNMjIxMDA0MTQyNDA2
WjByMQswCQYDVQQGEwJFUzESMBAGA1UECAwJQmFyY2Vsb25hMR0wGwYDVQQKDBRO
ZXR3b3JrIFNlY3VyaXR5IE9yZzEUMBIGA1UECwwLV2ViIFNlcnZlcnMxGjAYBgNV
BAMMEU5TIFRMUyBXZWIgU2VydmVyMIIBIjANBgkqhkiG9w0BAQEFAAOCAQ8AMIIB
CgKCAQEAtGi0ZBRRbAc0CmoOO+8w059Xa6qgjklxT/ZUonjYNXLaA9ItM+v1Ye2j
+N2bvJOLp//2jrDrg71pULJHPwepqA+LnWtL8lTct3F7BX/zKBtbRNsyn/wfejHk
xZFP3vVNJPz3xsrHvfEJJihy6Z+MW6Xeb7Gqmw3h9s/bR5F40Rk54VmpIgp2fcQI
Y49kMKFBNsMiCLfLnHq1eZxvBdnnKQIhJ9WZE2LwN8ov6wJMVpai70lpb4UKn9m7
sqd4ffyIytj+rw8d+L0vRM1wwAY5mcYTNGe3/XOMOfzCky0OAEAxzpmb8QSd1ODJ
cyQ8qwhJS7ewQi9IFPtLvLVtBRafTwIDAQABo4GjMIGgMAkGA1UdEwQCMAAwHQYD
VR0OBBYEFN6S9LfGGbiuTci1JjzvXKlJGqGCMB8GA1UdIwQYMBaAFLO4nEQ9asqW
AQqA/GG+nHKt/7VXMCsGCCsGAQUFBwEBBB8wHTAbBggrBgEFBQcwAYYPaHR0cDov
LzEwLjAuMi40MA4GA1UdDwEB/wQEAwID6DAWBgNVHSUBAf8EDDAKBggrBgEFBQcD
ATANBgkqhkiG9w0BAQsFAAOCAgEAKO4HFvqkUH8B3qP8mxwslKTm7Oqam7RD2uZt
KJRIpQ9nl1ohfdg1r5lVQpM/5BTEOLZzslv+sQzIa0LwI2T9kCqxRi69n1eWY4LH
/MscFvdSaxQlfBcrvEbeP3reEYcn93PEcyfnzbHJ6UkqoUo9QVIPlMEVZwfydbwN
d3mjE9/G9lnCOh/x0eOckgUIMXiVDMqSzV5SmMfZYx8lzZGsMdkMOXNYuXF3Ol6G
txdA44HvIfhYk9wqrqV6xoeVer7vYBmbIEljVhvSyymFvige5eDbKRZoA+GNADxc
bo2lQ7/bUXJGg87ey7zRIOhVaelHiOBpzyTYmcskhxQJUm5UZHQTZxXNiGKssmvc
lsWOvKkFeYsiMC16ywGfV3lttZoewnL2/ZsXyqUkD75pW8GJOQeBvRzs80IQuQEA
TKYP09e60E+jaDPS7ADaGvJF16YIT7NGsUA9FJBqIzj4vxKxVJZW+ti8U2ZD4+Vf
UTTuKIM2gf6oeqgc4dloHKUtKxnKmh/PC0hgI/SySz9gJfgO8DAdudQzVad6MVOy
PiFLNPTm/PaaB6cMVtgByxzI1mwBKuQ1q9joHfPMHyWSYadsjPRev99Mq6uUZhEq
J7cE26H31PfGIiUuqeLZOqkPvrrbhL/XtQvPgtoxlBvNCUvl3YSF3gpJRgi3lKuq
A6799CU=
-----END CERTIFICATE-----
