Certificate:
    Data:
        Version: 3 (0x2)
        Serial Number:
            70:0e:2f:9e:b6:0b:08:ac:9b:ad:a9:9e:88:9a:83:88:63:6f:82:b2
        Signature Algorithm: sha256WithRSAEncryption
        Issuer: C=ES, ST=Barcelona, O=Network Security Org, OU=Certification, CN=NS Root CA
        Validity
            Not Before: Oct  4 13:57:02 2021 GMT
            Not After : Oct  4 13:57:02 2022 GMT
        Subject: C=ES, ST=Barcelona, O=Network Security Org, OU=OCSP, CN=10.0.2.4
        Subject Public Key Info:
            Public Key Algorithm: rsaEncryption
                RSA Public-Key: (4096 bit)
                Modulus:
                    00:e3:c6:37:56:a8:fe:2f:ac:b8:66:c8:9c:8f:da:
                    4b:46:82:98:18:cd:40:3a:bc:32:e2:ea:03:09:a1:
                    d6:50:50:16:c7:bd:e4:32:bc:a3:ba:3c:cc:e8:d6:
                    5a:4b:d7:ac:56:cf:da:0a:59:1d:3a:b6:70:02:c6:
                    ee:d8:ff:ce:7f:44:85:84:6d:4f:08:a7:fe:09:36:
                    23:2e:c8:9c:0f:c9:1d:0e:8f:48:42:8d:72:69:c4:
                    3f:9f:2f:44:7a:aa:44:2a:eb:d5:ff:95:ea:4d:78:
                    71:c2:f4:b5:02:e8:49:2b:69:16:21:df:32:ec:6c:
                    8f:e6:7a:d3:10:fe:54:40:1b:e6:f6:ae:eb:64:82:
                    16:27:f3:5b:b1:1f:a5:eb:92:af:5e:82:21:1d:32:
                    3c:26:5a:40:00:5e:ce:b2:ad:28:93:ae:69:c5:76:
                    8d:74:4e:24:02:bb:4d:2f:5f:ca:c1:60:df:df:58:
                    41:e1:2c:7f:04:fc:87:70:a5:5f:64:1b:d9:0a:78:
                    12:74:ec:b2:be:4f:67:2b:0f:96:d0:fc:13:04:cf:
                    bf:20:39:25:d7:ed:12:99:ad:e1:5f:59:eb:52:77:
                    25:a9:e6:a8:85:c0:df:b2:0d:d6:0f:39:81:19:a4:
                    5d:d6:75:45:68:95:35:7c:99:c8:7f:0d:55:a2:d7:
                    96:96:f5:cd:8e:69:26:3c:34:76:f1:a6:6c:26:3a:
                    4c:41:fc:dd:d7:59:31:28:1f:9a:b0:4c:2e:af:10:
                    b8:1d:e4:c5:cb:0c:46:06:e3:0d:81:e2:e6:3f:b5:
                    26:5d:78:64:ee:26:ec:b8:d1:7f:c7:6f:31:18:cd:
                    55:db:66:9a:be:fa:32:8d:53:1e:4e:35:e6:d1:f2:
                    57:09:a8:e6:96:fb:b5:bc:23:82:92:0e:ef:08:3d:
                    89:6b:cf:76:5c:09:cb:fb:97:ee:09:db:83:8a:15:
                    15:a4:fb:dc:9d:d5:a0:ac:ea:6b:c8:32:61:23:d6:
                    98:95:13:b0:c1:60:81:3d:99:3e:26:df:b9:35:a4:
                    8d:f3:7b:6f:09:d9:90:16:e7:8d:1f:08:0a:26:e3:
                    84:e9:25:b5:06:cd:60:4d:ed:5f:21:f9:5e:8c:4d:
                    b2:24:36:b2:3a:c8:95:88:c7:21:a1:bc:3e:34:32:
                    25:4e:27:5b:9c:20:15:2f:df:41:ee:b3:cc:93:ea:
                    1c:61:50:1f:92:09:0f:91:56:2e:9a:de:38:22:d0:
                    5b:0d:f1:94:9b:ba:4d:13:22:a6:21:ef:9e:e1:12:
                    1e:ce:50:73:42:75:70:82:ef:38:03:34:6a:70:02:
                    b1:59:35:b8:e4:72:43:81:5c:a7:1e:dc:cf:ef:64:
                    b0:97:9b
                Exponent: 65537 (0x10001)
        X509v3 extensions:
            X509v3 Key Usage: critical
                Digital Signature
            X509v3 Extended Key Usage: critical
                OCSP Signing
            X509v3 Basic Constraints: 
                CA:FALSE
            Netscape Comment: 
                OpenSSL Generated Certificate
            X509v3 Subject Key Identifier: 
                71:49:33:FC:4A:11:CC:72:F8:97:D2:9B:D1:70:D6:7F:01:0C:64:67
            X509v3 Authority Key Identifier: 
                keyid:B3:B8:9C:44:3D:6A:CA:96:01:0A:80:FC:61:BE:9C:72:AD:FF:B5:57

    Signature Algorithm: sha256WithRSAEncryption
         01:35:a5:3d:fd:56:63:0a:30:52:5d:29:87:f6:b8:02:c2:9a:
         01:43:6a:7a:5b:7e:ab:b3:88:60:d0:da:c3:9a:04:5b:6c:77:
         88:fd:c5:76:6f:ea:41:64:01:e0:9e:26:8e:32:3e:00:f5:ff:
         71:38:6c:ab:87:f3:27:95:7d:f9:ea:76:31:75:b6:eb:cb:d6:
         a7:7f:19:20:85:09:c0:1b:58:04:34:7d:ee:9c:1b:7c:96:18:
         17:75:78:4f:53:4e:79:96:99:1c:00:46:46:68:9b:56:de:50:
         75:5f:a3:77:11:1f:1e:e6:be:27:0f:32:00:30:f8:0c:c5:1e:
         88:7f:73:35:af:c7:02:a9:6e:c7:42:a8:7c:e3:35:ac:74:c2:
         dc:02:ba:75:9e:19:20:05:13:05:cf:81:7c:38:ce:6f:09:b9:
         11:a0:cd:1c:26:62:ef:e9:f7:60:93:b2:ee:86:35:a6:7a:7b:
         86:ff:36:d2:09:35:78:04:05:2f:63:a1:10:26:d3:19:9b:d3:
         68:e9:e4:d3:ef:27:61:20:1f:87:87:24:19:19:63:08:d6:52:
         b8:22:b7:b6:74:27:ee:4e:6d:a0:27:f5:1f:a1:1c:ab:a3:b3:
         6f:d8:62:28:a7:43:a6:9b:da:48:9f:bd:56:59:41:0c:e2:8a:
         1e:53:af:46:9c:86:cb:32:ed:cf:e1:1b:a7:a6:b3:de:00:2f:
         44:18:86:25:fa:e2:d3:52:aa:de:87:fd:87:e8:fd:18:5f:ce:
         f6:9c:4b:11:5a:08:23:4e:1d:61:89:07:f6:3c:1e:f3:c1:e1:
         ed:39:51:cf:73:f9:cc:ca:b3:66:bd:fc:09:64:e6:50:10:81:
         8e:f5:8a:54:53:33:b0:02:4c:9f:e6:b6:2a:f8:a2:22:e5:83:
         c9:6e:5d:1b:78:81:91:c6:34:d3:35:2b:19:0a:39:4f:40:af:
         e5:7e:83:5f:4d:8f:5a:92:4c:95:8d:fa:5a:bd:b3:2d:07:8a:
         87:1c:98:ab:d1:07:f3:33:c5:fd:91:04:db:8a:41:3e:8f:75:
         ed:93:49:b9:d8:3b:9e:37:3f:46:58:d5:f6:43:37:4d:69:47:
         2f:b6:1a:ed:13:e0:8e:a0:c5:05:1f:1d:76:f0:19:76:92:c9:
         03:4d:b8:79:e3:1c:f4:ed:f7:ac:84:85:f1:09:a9:54:26:e1:
         e4:33:61:a1:31:8f:56:e4:0c:e6:02:7b:8d:23:4e:59:2c:ae:
         a3:23:da:9c:5c:7f:fd:6f:41:b1:ed:75:88:9d:00:55:f0:ba:
         30:68:e7:63:49:6b:82:2c:5f:d7:e0:98:9a:ad:14:94:0b:ae:
         e9:a0:bc:80:86:e0:0d:dd
-----BEGIN CERTIFICATE-----
MIIGAjCCA+qgAwIBAgIUcA4vnrYLCKybrameiJqDiGNvgrIwDQYJKoZIhvcNAQEL
BQAwbTELMAkGA1UEBhMCRVMxEjAQBgNVBAgMCUJhcmNlbG9uYTEdMBsGA1UECgwU
TmV0d29yayBTZWN1cml0eSBPcmcxFjAUBgNVBAsMDUNlcnRpZmljYXRpb24xEzAR
BgNVBAMMCk5TIFJvb3QgQ0EwHhcNMjExMDA0MTM1NzAyWhcNMjIxMDA0MTM1NzAy
WjBiMQswCQYDVQQGEwJFUzESMBAGA1UECAwJQmFyY2Vsb25hMR0wGwYDVQQKDBRO
ZXR3b3JrIFNlY3VyaXR5IE9yZzENMAsGA1UECwwET0NTUDERMA8GA1UEAwwIMTAu
MC4yLjQwggIiMA0GCSqGSIb3DQEBAQUAA4ICDwAwggIKAoICAQDjxjdWqP4vrLhm
yJyP2ktGgpgYzUA6vDLi6gMJodZQUBbHveQyvKO6PMzo1lpL16xWz9oKWR06tnAC
xu7Y/85/RIWEbU8Ip/4JNiMuyJwPyR0Oj0hCjXJpxD+fL0R6qkQq69X/lepNeHHC
9LUC6EkraRYh3zLsbI/metMQ/lRAG+b2rutkghYn81uxH6Xrkq9egiEdMjwmWkAA
Xs6yrSiTrmnFdo10TiQCu00vX8rBYN/fWEHhLH8E/IdwpV9kG9kKeBJ07LK+T2cr
D5bQ/BMEz78gOSXX7RKZreFfWetSdyWp5qiFwN+yDdYPOYEZpF3WdUVolTV8mch/
DVWi15aW9c2OaSY8NHbxpmwmOkxB/N3XWTEoH5qwTC6vELgd5MXLDEYG4w2B4uY/
tSZdeGTuJuy40X/HbzEYzVXbZpq++jKNUx5ONebR8lcJqOaW+7W8I4KSDu8IPYlr
z3ZcCcv7l+4J24OKFRWk+9yd1aCs6mvIMmEj1piVE7DBYIE9mT4m37k1pI3ze28J
2ZAW540fCAom44TpJbUGzWBN7V8h+V6MTbIkNrI6yJWIxyGhvD40MiVOJ1ucIBUv
30Hus8yT6hxhUB+SCQ+RVi6a3jgi0FsN8ZSbuk0TIqYh757hEh7OUHNCdXCC7zgD
NGpwArFZNbjkckOBXKce3M/vZLCXmwIDAQABo4GkMIGhMA4GA1UdDwEB/wQEAwIH
gDAWBgNVHSUBAf8EDDAKBggrBgEFBQcDCTAJBgNVHRMEAjAAMCwGCWCGSAGG+EIB
DQQfFh1PcGVuU1NMIEdlbmVyYXRlZCBDZXJ0aWZpY2F0ZTAdBgNVHQ4EFgQUcUkz
/EoRzHL4l9Kb0XDWfwEMZGcwHwYDVR0jBBgwFoAUs7icRD1qypYBCoD8Yb6ccq3/
tVcwDQYJKoZIhvcNAQELBQADggIBAAE1pT39VmMKMFJdKYf2uALCmgFDanpbfquz
iGDQ2sOaBFtsd4j9xXZv6kFkAeCeJo4yPgD1/3E4bKuH8yeVffnqdjF1tuvL1qd/
GSCFCcAbWAQ0fe6cG3yWGBd1eE9TTnmWmRwARkZom1beUHVfo3cRHx7mvicPMgAw
+AzFHoh/czWvxwKpbsdCqHzjNax0wtwCunWeGSAFEwXPgXw4zm8JuRGgzRwmYu/p
92CTsu6GNaZ6e4b/NtIJNXgEBS9joRAm0xmb02jp5NPvJ2EgH4eHJBkZYwjWUrgi
t7Z0J+5ObaAn9R+hHKujs2/YYiinQ6ab2kifvVZZQQziih5Tr0achssy7c/hG6em
s94AL0QYhiX64tNSqt6H/Yfo/RhfzvacSxFaCCNOHWGJB/Y8HvPB4e05Uc9z+czK
s2a9/Alk5lAQgY71ilRTM7ACTJ/mtir4oiLlg8luXRt4gZHGNNM1KxkKOU9Ar+V+
g19Nj1qSTJWN+lq9sy0HioccmKvRB/Mzxf2RBNuKQT6Pde2TSbnYO543P0ZY1fZD
N01pRy+2Gu0T4I6gxQUfHXbwGXaSyQNNuHnjHPTt96yEhfEJqVQm4eQzYaExj1bk
DOYCe40jTlksrqMj2pxcf/1vQbHtdYidAFXwujBo52NJa4IsX9fgmJqtFJQLrumg
vICG4A3d
-----END CERTIFICATE-----
