Certificate:
    Data:
        Version: 3 (0x2)
        Serial Number:
            3c:9d:c5:5e:00:99:81:19:cd:eb:28:b6:38:b7:a0:86:01:a7:34:e2
        Signature Algorithm: sha256WithRSAEncryption
        Issuer: C=ES, ST=Barcelona, O=Network Security Org, OU=Certification, CN=10.0.2.4
        Validity
            Not Before: Oct 18 16:53:35 2021 GMT
            Not After : Oct 18 16:53:35 2022 GMT
        Subject: C=ES, ST=Barcelona, O=Network Security Org, OU=Web Servers, CN=10.0.2.15
        Subject Public Key Info:
            Public Key Algorithm: rsaEncryption
                RSA Public-Key: (2048 bit)
                Modulus:
                    00:cc:26:05:54:25:ab:ee:e1:ed:5e:05:37:82:03:
                    40:66:48:a5:02:34:92:bf:6b:ef:87:43:5a:5d:87:
                    55:32:4e:e1:2d:8f:57:01:cf:8c:67:bc:4e:50:30:
                    81:7c:f0:f9:53:8d:11:13:1e:67:03:27:01:2d:96:
                    7b:9c:68:57:71:a5:52:ef:27:fd:87:af:1a:00:c3:
                    1b:82:08:8f:76:52:56:87:c0:9f:c4:3a:2c:5a:3c:
                    a0:f5:b4:d5:b7:a6:6d:b6:07:b5:c9:61:f5:df:60:
                    0e:e5:df:b6:c7:20:0f:cc:9b:bf:6b:73:53:4a:23:
                    94:cb:e9:80:65:63:d4:46:a9:cc:01:bf:73:2c:70:
                    9f:41:c1:c4:df:be:f7:6b:a2:eb:72:5c:ea:b2:e7:
                    4f:db:0d:90:a1:84:b9:61:64:8a:b0:b2:2c:4a:e0:
                    af:f5:cf:72:f3:e4:e8:5b:4c:31:46:fa:f3:6a:d6:
                    5e:58:88:0a:a8:af:52:16:93:3a:84:89:3d:3a:e2:
                    01:5f:6a:89:09:1e:c5:b4:a3:49:10:6a:17:bf:63:
                    23:65:cd:15:30:94:24:44:2c:b9:8d:76:75:04:92:
                    4a:c1:7b:eb:dc:f3:4b:7e:c0:95:c4:ef:ff:7f:97:
                    11:ba:b8:96:25:a5:a3:3d:f7:6a:a4:d7:29:e3:ef:
                    90:59
                Exponent: 65537 (0x10001)
        X509v3 extensions:
            X509v3 Basic Constraints: 
                CA:FALSE
            X509v3 Subject Key Identifier: 
                31:37:4A:8D:4F:2A:55:F8:9F:B0:93:02:D7:F4:C1:7B:33:46:9F:40
            X509v3 Authority Key Identifier: 
                keyid:D2:FC:F4:3E:0B:3A:A5:46:CE:C2:E2:CB:70:03:2E:B3:9F:BF:06:31

            Authority Information Access: 
                OCSP - URI:http://10.0.2.4

            X509v3 Key Usage: critical
                Digital Signature, Non Repudiation, Key Encipherment, Key Agreement
            X509v3 Extended Key Usage: critical
                TLS Web Server Authentication
            X509v3 Subject Alternative Name: 
                IP Address:10.0.2.15
    Signature Algorithm: sha256WithRSAEncryption
         49:19:06:43:51:7a:93:a9:05:8a:16:31:c2:88:89:ca:86:cf:
         47:72:03:fb:32:07:d4:b7:0b:a3:e0:70:35:20:27:f1:b8:fb:
         c4:05:92:0e:db:4a:e7:b0:c0:dc:64:a6:ef:0b:06:2a:94:21:
         c8:04:48:83:9c:7a:34:20:be:32:87:ce:11:62:60:c8:3f:8d:
         d2:14:17:82:d4:6b:71:24:15:d0:78:dd:5b:42:a1:3a:ef:e4:
         31:48:53:1e:96:7a:f3:12:fa:9e:0e:1c:cb:d3:83:59:14:c8:
         67:7f:d7:c6:b3:38:f8:70:19:c3:a5:4c:4e:62:2d:49:07:97:
         49:68:a1:40:22:25:20:af:ef:c9:65:6a:20:d3:ff:42:0f:49:
         2c:9d:50:ae:36:89:c8:d6:aa:19:55:3c:94:64:c5:bf:35:07:
         3c:c1:bc:b8:85:2d:94:be:51:dc:9d:71:a0:42:59:64:12:19:
         eb:80:d4:bf:4c:1a:e8:40:e8:5d:42:38:97:9f:81:63:f3:b5:
         db:45:f9:a8:c0:88:9c:f5:65:86:ee:71:71:20:f6:b8:0e:84:
         f9:63:73:12:5d:96:cc:06:13:75:37:44:66:0e:7e:4b:ef:6d:
         aa:3d:6c:2c:7a:ad:ea:6e:5c:83:a7:75:ae:66:dc:15:6d:99:
         ca:ea:48:96:7d:65:dc:43:7b:97:f6:46:c1:23:b4:91:7d:0e:
         f9:89:36:d5:a6:8c:0f:30:30:32:a7:6d:62:51:b3:19:b1:da:
         8b:29:78:09:15:86:27:dd:be:45:31:85:9b:4a:ce:ce:73:8b:
         b7:8e:d1:da:b9:83:e5:a1:89:9d:72:08:5b:e4:b3:17:3e:c9:
         95:1c:f2:4f:46:81:04:48:5f:3d:2a:2d:87:fb:04:a0:76:2b:
         f2:ad:fe:a6:91:c2:25:21:24:62:d5:f2:40:46:29:e9:b9:7e:
         9b:12:d7:f5:a5:88:a7:eb:21:cc:e3:ff:80:c1:f6:0e:03:b8:
         cd:c4:58:5c:b0:06:68:8f:9c:83:fc:74:e3:3d:c9:b8:82:0a:
         90:87:93:53:d3:b9:d7:66:e4:06:c4:cd:9c:c7:3f:50:53:a9:
         ad:0a:90:c0:7b:2a:e4:5d:20:47:8d:55:6f:02:7b:06:3f:da:
         66:cc:1c:64:e5:e2:e5:64:10:cf:43:80:67:3e:3d:39:09:5e:
         b5:b5:31:27:b0:ce:2b:ad:33:24:ea:f0:e8:f8:62:51:27:e1:
         a8:4b:d8:dd:d1:98:66:80:ea:3f:3f:93:65:18:a9:3e:5a:6a:
         34:58:e4:9b:9c:74:f6:21:2e:3b:a7:a9:49:1d:89:12:e7:92:
         50:a7:8b:ce:f4:0a:95:02
-----BEGIN CERTIFICATE-----
MIIFGDCCAwCgAwIBAgIUPJ3FXgCZgRnN6yi2OLeghgGnNOIwDQYJKoZIhvcNAQEL
BQAwazELMAkGA1UEBhMCRVMxEjAQBgNVBAgMCUJhcmNlbG9uYTEdMBsGA1UECgwU
TmV0d29yayBTZWN1cml0eSBPcmcxFjAUBgNVBAsMDUNlcnRpZmljYXRpb24xETAP
BgNVBAMMCDEwLjAuMi40MB4XDTIxMTAxODE2NTMzNVoXDTIyMTAxODE2NTMzNVow
ajELMAkGA1UEBhMCRVMxEjAQBgNVBAgMCUJhcmNlbG9uYTEdMBsGA1UECgwUTmV0
d29yayBTZWN1cml0eSBPcmcxFDASBgNVBAsMC1dlYiBTZXJ2ZXJzMRIwEAYDVQQD
DAkxMC4wLjIuMTUwggEiMA0GCSqGSIb3DQEBAQUAA4IBDwAwggEKAoIBAQDMJgVU
Javu4e1eBTeCA0BmSKUCNJK/a++HQ1pdh1UyTuEtj1cBz4xnvE5QMIF88PlTjRET
HmcDJwEtlnucaFdxpVLvJ/2HrxoAwxuCCI92UlaHwJ/EOixaPKD1tNW3pm22B7XJ
YfXfYA7l37bHIA/Mm79rc1NKI5TL6YBlY9RGqcwBv3MscJ9BwcTfvvdroutyXOqy
50/bDZChhLlhZIqwsixK4K/1z3Lz5OhbTDFG+vNq1l5YiAqor1IWkzqEiT064gFf
aokJHsW0o0kQahe/YyNlzRUwlCRELLmNdnUEkkrBe+vc80t+wJXE7/9/lxG6uJYl
paM992qk1ynj75BZAgMBAAGjgbQwgbEwCQYDVR0TBAIwADAdBgNVHQ4EFgQUMTdK
jU8qVfifsJMC1/TBezNGn0AwHwYDVR0jBBgwFoAU0vz0Pgs6pUbOwuLLcAMus5+/
BjEwKwYIKwYBBQUHAQEEHzAdMBsGCCsGAQUFBzABhg9odHRwOi8vMTAuMC4yLjQw
DgYDVR0PAQH/BAQDAgPoMBYGA1UdJQEB/wQMMAoGCCsGAQUFBwMBMA8GA1UdEQQI
MAaHBAoAAg8wDQYJKoZIhvcNAQELBQADggIBAEkZBkNRepOpBYoWMcKIicqGz0dy
A/syB9S3C6PgcDUgJ/G4+8QFkg7bSuewwNxkpu8LBiqUIcgESIOcejQgvjKHzhFi
YMg/jdIUF4LUa3EkFdB43VtCoTrv5DFIUx6WevMS+p4OHMvTg1kUyGd/18azOPhw
GcOlTE5iLUkHl0looUAiJSCv78llaiDT/0IPSSydUK42icjWqhlVPJRkxb81BzzB
vLiFLZS+UdydcaBCWWQSGeuA1L9MGuhA6F1COJefgWPztdtF+ajAiJz1ZYbucXEg
9rgOhPljcxJdlswGE3U3RGYOfkvvbao9bCx6repuXIOnda5m3BVtmcrqSJZ9ZdxD
e5f2RsEjtJF9DvmJNtWmjA8wMDKnbWJRsxmx2ospeAkVhifdvkUxhZtKzs5zi7eO
0dq5g+WhiZ1yCFvksxc+yZUc8k9GgQRIXz0qLYf7BKB2K/Kt/qaRwiUhJGLV8kBG
Kem5fpsS1/WliKfrIczj/4DB9g4DuM3EWFywBmiPnIP8dOM9ybiCCpCHk1PTuddm
5AbEzZzHP1BTqa0KkMB7KuRdIEeNVW8CewY/2mbMHGTl4uVkEM9DgGc+PTkJXrW1
MSewziutMyTq8Oj4YlEn4ahL2N3RmGaA6j8/k2UYqT5aajRY5JucdPYhLjunqUkd
iRLnklCni870CpUC
-----END CERTIFICATE-----
